target datalayout = "e-m:e-p270:32:32-p271:32:32-p272:64:64-i64:64-i128:128-f80:128-n8:16:32:64-S128"
target triple = "x86_64-pc-linux-gnu"

%struct.ossl_record_layer_st = type { ptr, ptr, i32, i32, i32, i32, i32, ptr, i16, ptr, ptr, ptr, i64, i32, [33 x %struct.tls_buffer_st], i64, i64, %struct.tls_buffer_st, [32 x %struct.tls_rl_record_st], i64, i64, i64, i32, ptr, i64, [8 x i8], i32, i32, i64, i32, ptr, ptr, i64, ptr, ptr, i32, i32, i32, i64, i64, i64, [64 x i8], i32, i32, i32, ptr, ptr, i32, i32, i64, ptr, ptr, %struct.dtls_bitmap_st, %struct.dtls_bitmap_st, i32, ptr, ptr, ptr, ptr, ptr, i64, ptr }
%struct.tls_buffer_st = type { ptr, i64, i64, i64, i64, i32, i32 }
%struct.tls_rl_record_st = type { i32, i32, i64, i64, i64, ptr, ptr, ptr, i16, [8 x i8] }
%struct.dtls_bitmap_st = type { i64, [8 x i8] }
%struct.ossl_param_st = type { ptr, i32, ptr, i64, i64 }

@.str.3 = private unnamed_addr constant [14 x i8] c"tls-data-size\00", align 1

; Function Attrs: nounwind uwtable
define internal i32 @tls1_mac(ptr noundef %0, ptr noundef %1, ptr noundef %2, i32 noundef %3) #0 {
  %5 = alloca i32, align 4
  %6 = alloca ptr, align 8
  %7 = alloca ptr, align 8
  %8 = alloca ptr, align 8
  %9 = alloca i32, align 4
  %10 = alloca ptr, align 8
  %11 = alloca ptr, align 8
  %12 = alloca i64, align 8
  %13 = alloca ptr, align 8
  %14 = alloca ptr, align 8
  %15 = alloca [13 x i8], align 1
  %16 = alloca i32, align 4
  %17 = alloca i32, align 4
  %18 = alloca i32, align 4
  %19 = alloca [8 x i8], align 1
  %20 = alloca ptr, align 8
  %21 = alloca [2 x %struct.ossl_param_st], align 16
  %22 = alloca ptr, align 8
  %23 = alloca %struct.ossl_param_st, align 8
  %24 = alloca %struct.ossl_param_st, align 8
  %25 = alloca ptr, align 8
  %26 = alloca ptr, align 8
  store ptr %0, ptr %6, align 8, !tbaa !3
  store ptr %1, ptr %7, align 8, !tbaa !60
  store ptr %2, ptr %8, align 8, !tbaa !43
  store i32 %3, ptr %9, align 4, !tbaa !42
  call void @llvm.lifetime.start.p0(i64 8, ptr %10) #5
  %27 = load ptr, ptr %6, align 8, !tbaa !3
  %28 = getelementptr inbounds nuw %struct.ossl_record_layer_st, ptr %27, i32 0, i32 25
  %29 = getelementptr inbounds [8 x i8], ptr %28, i64 0, i64 0
  store ptr %29, ptr %10, align 8, !tbaa !43
  call void @llvm.lifetime.start.p0(i64 8, ptr %11) #5
  call void @llvm.lifetime.start.p0(i64 8, ptr %12) #5
  call void @llvm.lifetime.start.p0(i64 8, ptr %13) #5
  store ptr null, ptr %13, align 8, !tbaa !88
  call void @llvm.lifetime.start.p0(i64 8, ptr %14) #5
  call void @llvm.lifetime.start.p0(i64 13, ptr %15) #5
  call void @llvm.lifetime.start.p0(i64 4, ptr %16) #5
  call void @llvm.lifetime.start.p0(i64 4, ptr %17) #5
  store i32 0, ptr %17, align 4, !tbaa !42
  %30 = load ptr, ptr %6, align 8, !tbaa !3
  %31 = getelementptr inbounds nuw %struct.ossl_record_layer_st, ptr %30, i32 0, i32 33
  %32 = load ptr, ptr %31, align 8, !tbaa !52
  store ptr %32, ptr %11, align 8, !tbaa !88
  %33 = load ptr, ptr %11, align 8, !tbaa !88
  %34 = call i32 @EVP_MD_CTX_get_size_ex(ptr noundef %33)
  store i32 %34, ptr %16, align 4, !tbaa !42
  %35 = load i32, ptr %16, align 4, !tbaa !42
  %36 = icmp sge i32 %35, 0
  %37 = zext i1 %36 to i32
  %38 = icmp ne i32 %37, 0
  %39 = xor i1 %38, true
  %40 = xor i1 %39, true
  %41 = zext i1 %40 to i32
  %42 = sext i32 %41 to i64
  %43 = call i64 @llvm.expect.i64(i64 %42, i64 1)
  %44 = icmp ne i64 %43, 0
  br i1 %44, label %46, label %45

45:                                               ; preds = %4
  store i32 0, ptr %5, align 4
  store i32 1, ptr %18, align 4
  br label %224

46:                                               ; preds = %4
  %47 = load i32, ptr %16, align 4, !tbaa !42
  %48 = sext i32 %47 to i64
  store i64 %48, ptr %12, align 8, !tbaa !10
  %49 = load ptr, ptr %6, align 8, !tbaa !3
  %50 = getelementptr inbounds nuw %struct.ossl_record_layer_st, ptr %49, i32 0, i32 43
  %51 = load i32, ptr %50, align 4, !tbaa !89
  %52 = icmp ne i32 %51, 0
  br i1 %52, label %53, label %55

53:                                               ; preds = %46
  %54 = load ptr, ptr %11, align 8, !tbaa !88
  store ptr %54, ptr %14, align 8, !tbaa !88
  br label %67

55:                                               ; preds = %46
  %56 = call ptr @EVP_MD_CTX_new()
  store ptr %56, ptr %13, align 8, !tbaa !88
  %57 = load ptr, ptr %13, align 8, !tbaa !88
  %58 = icmp eq ptr %57, null
  br i1 %58, label %64, label %59

59:                                               ; preds = %55
  %60 = load ptr, ptr %13, align 8, !tbaa !88
  %61 = load ptr, ptr %11, align 8, !tbaa !88
  %62 = call i32 @EVP_MD_CTX_copy(ptr noundef %60, ptr noundef %61)
  %63 = icmp ne i32 %62, 0
  br i1 %63, label %65, label %64

64:                                               ; preds = %59, %55
  br label %221

65:                                               ; preds = %59
  %66 = load ptr, ptr %13, align 8, !tbaa !88
  store ptr %66, ptr %14, align 8, !tbaa !88
  br label %67

67:                                               ; preds = %65, %53
  %68 = load ptr, ptr %6, align 8, !tbaa !3
  %69 = getelementptr inbounds nuw %struct.ossl_record_layer_st, ptr %68, i32 0, i32 2
  %70 = load i32, ptr %69, align 8, !tbaa !70
  %71 = icmp ne i32 %70, 0
  br i1 %71, label %83, label %72

72:                                               ; preds = %67
  %73 = load ptr, ptr %6, align 8, !tbaa !3
  %74 = getelementptr inbounds nuw %struct.ossl_record_layer_st, ptr %73, i32 0, i32 44
  %75 = load i32, ptr %74, align 8, !tbaa !78
  %76 = icmp ne i32 %75, 0
  br i1 %76, label %77, label %83

77:                                               ; preds = %72
  %78 = load ptr, ptr %14, align 8, !tbaa !88
  %79 = load ptr, ptr %10, align 8, !tbaa !43
  %80 = call i32 @EVP_MD_CTX_ctrl(ptr noundef %78, i32 noundef 4, i32 noundef 0, ptr noundef %79)
  %81 = icmp sle i32 %80, 0
  br i1 %81, label %82, label %83

82:                                               ; preds = %77
  br label %221

83:                                               ; preds = %77, %72, %67
  %84 = load ptr, ptr %6, align 8, !tbaa !3
  %85 = getelementptr inbounds nuw %struct.ossl_record_layer_st, ptr %84, i32 0, i32 2
  %86 = load i32, ptr %85, align 8, !tbaa !70
  %87 = icmp ne i32 %86, 0
  br i1 %87, label %88, label %114

88:                                               ; preds = %83
  call void @llvm.lifetime.start.p0(i64 8, ptr %19) #5
  call void @llvm.lifetime.start.p0(i64 8, ptr %20) #5
  %89 = getelementptr inbounds [8 x i8], ptr %19, i64 0, i64 0
  store ptr %89, ptr %20, align 8, !tbaa !43
  %90 = load ptr, ptr %6, align 8, !tbaa !3
  %91 = getelementptr inbounds nuw %struct.ossl_record_layer_st, ptr %90, i32 0, i32 8
  %92 = load i16, ptr %91, align 8, !tbaa !71
  %93 = zext i16 %92 to i32
  %94 = ashr i32 %93, 8
  %95 = and i32 %94, 255
  %96 = trunc i32 %95 to i8
  %97 = load ptr, ptr %20, align 8, !tbaa !43
  %98 = getelementptr inbounds i8, ptr %97, i64 0
  store i8 %96, ptr %98, align 1, !tbaa !72
  %99 = load ptr, ptr %6, align 8, !tbaa !3
  %100 = getelementptr inbounds nuw %struct.ossl_record_layer_st, ptr %99, i32 0, i32 8
  %101 = load i16, ptr %100, align 8, !tbaa !71
  %102 = zext i16 %101 to i32
  %103 = and i32 %102, 255
  %104 = trunc i32 %103 to i8
  %105 = load ptr, ptr %20, align 8, !tbaa !43
  %106 = getelementptr inbounds i8, ptr %105, i64 1
  store i8 %104, ptr %106, align 1, !tbaa !72
  %107 = load ptr, ptr %20, align 8, !tbaa !43
  %108 = getelementptr inbounds i8, ptr %107, i64 2
  store ptr %108, ptr %20, align 8, !tbaa !43
  %109 = load ptr, ptr %20, align 8, !tbaa !43
  %110 = load ptr, ptr %10, align 8, !tbaa !43
  %111 = getelementptr inbounds i8, ptr %110, i64 2
  call void @llvm.memcpy.p0.p0.i64(ptr align 1 %109, ptr align 1 %111, i64 6, i1 false)
  %112 = getelementptr inbounds [13 x i8], ptr %15, i64 0, i64 0
  %113 = getelementptr inbounds [8 x i8], ptr %19, i64 0, i64 0
  call void @llvm.memcpy.p0.p0.i64(ptr align 1 %112, ptr align 1 %113, i64 8, i1 false)
  call void @llvm.lifetime.end.p0(i64 8, ptr %20) #5
  call void @llvm.lifetime.end.p0(i64 8, ptr %19) #5
  br label %117

114:                                              ; preds = %83
  %115 = getelementptr inbounds [13 x i8], ptr %15, i64 0, i64 0
  %116 = load ptr, ptr %10, align 8, !tbaa !43
  call void @llvm.memcpy.p0.p0.i64(ptr align 1 %115, ptr align 1 %116, i64 8, i1 false)
  br label %117

117:                                              ; preds = %114, %88
  %118 = load ptr, ptr %7, align 8, !tbaa !60
  %119 = getelementptr inbounds nuw %struct.tls_rl_record_st, ptr %118, i32 0, i32 1
  %120 = load i32, ptr %119, align 4, !tbaa !73
  %121 = trunc i32 %120 to i8
  %122 = getelementptr inbounds [13 x i8], ptr %15, i64 0, i64 8
  store i8 %121, ptr %122, align 1, !tbaa !72
  %123 = load ptr, ptr %6, align 8, !tbaa !3
  %124 = getelementptr inbounds nuw %struct.ossl_record_layer_st, ptr %123, i32 0, i32 3
  %125 = load i32, ptr %124, align 4, !tbaa !58
  %126 = ashr i32 %125, 8
  %127 = trunc i32 %126 to i8
  %128 = getelementptr inbounds [13 x i8], ptr %15, i64 0, i64 9
  store i8 %127, ptr %128, align 1, !tbaa !72
  %129 = load ptr, ptr %6, align 8, !tbaa !3
  %130 = getelementptr inbounds nuw %struct.ossl_record_layer_st, ptr %129, i32 0, i32 3
  %131 = load i32, ptr %130, align 4, !tbaa !58
  %132 = trunc i32 %131 to i8
  %133 = getelementptr inbounds [13 x i8], ptr %15, i64 0, i64 10
  store i8 %132, ptr %133, align 1, !tbaa !72
  %134 = load ptr, ptr %7, align 8, !tbaa !60
  %135 = getelementptr inbounds nuw %struct.tls_rl_record_st, ptr %134, i32 0, i32 2
  %136 = load i64, ptr %135, align 8, !tbaa !69
  %137 = lshr i64 %136, 8
  %138 = trunc i64 %137 to i8
  %139 = getelementptr inbounds [13 x i8], ptr %15, i64 0, i64 11
  store i8 %138, ptr %139, align 1, !tbaa !72
  %140 = load ptr, ptr %7, align 8, !tbaa !60
  %141 = getelementptr inbounds nuw %struct.tls_rl_record_st, ptr %140, i32 0, i32 2
  %142 = load i64, ptr %141, align 8, !tbaa !69
  %143 = and i64 %142, 255
  %144 = trunc i64 %143 to i8
  %145 = getelementptr inbounds [13 x i8], ptr %15, i64 0, i64 12
  store i8 %144, ptr %145, align 1, !tbaa !72
  %146 = load i32, ptr %9, align 4, !tbaa !42
  %147 = icmp ne i32 %146, 0
  br i1 %147, label %183, label %148

148:                                              ; preds = %117
  %149 = load ptr, ptr %6, align 8, !tbaa !3
  %150 = getelementptr inbounds nuw %struct.ossl_record_layer_st, ptr %149, i32 0, i32 42
  %151 = load i32, ptr %150, align 8, !tbaa !79
  %152 = icmp ne i32 %151, 0
  br i1 %152, label %183, label %153

153:                                              ; preds = %148
  %154 = load ptr, ptr %6, align 8, !tbaa !3
  %155 = getelementptr inbounds nuw %struct.ossl_record_layer_st, ptr %154, i32 0, i32 30
  %156 = load ptr, ptr %155, align 8, !tbaa !50
  %157 = call ptr @EVP_CIPHER_CTX_get0_cipher(ptr noundef %156)
  %158 = call i32 @EVP_CIPHER_get_mode(ptr noundef %157)
  %159 = icmp eq i32 %158, 2
  br i1 %159, label %160, label %183

160:                                              ; preds = %153
  %161 = load ptr, ptr %14, align 8, !tbaa !88
  %162 = call signext i8 @ssl3_cbc_record_digest_supported(ptr noundef %161)
  %163 = sext i8 %162 to i32
  %164 = icmp ne i32 %163, 0
  br i1 %164, label %165, label %183

165:                                              ; preds = %160
  call void @llvm.lifetime.start.p0(i64 80, ptr %21) #5
  call void @llvm.lifetime.start.p0(i64 8, ptr %22) #5
  %166 = getelementptr inbounds [2 x %struct.ossl_param_st], ptr %21, i64 0, i64 0
  store ptr %166, ptr %22, align 8, !tbaa !81
  %167 = load ptr, ptr %22, align 8, !tbaa !81
  %168 = getelementptr inbounds nuw %struct.ossl_param_st, ptr %167, i32 1
  store ptr %168, ptr %22, align 8, !tbaa !81
  call void @llvm.lifetime.start.p0(i64 40, ptr %23) #5
  %169 = load ptr, ptr %7, align 8, !tbaa !60
  %170 = getelementptr inbounds nuw %struct.tls_rl_record_st, ptr %169, i32 0, i32 3
  call void @OSSL_PARAM_construct_size_t(ptr dead_on_unwind writable sret(%struct.ossl_param_st) align 8 %23, ptr noundef @.str.3, ptr noundef %170)
  call void @llvm.memcpy.p0.p0.i64(ptr align 8 %167, ptr align 8 %23, i64 40, i1 false), !tbaa.struct !85
  call void @llvm.lifetime.end.p0(i64 40, ptr %23) #5
  %171 = load ptr, ptr %22, align 8, !tbaa !81
  %172 = getelementptr inbounds nuw %struct.ossl_param_st, ptr %171, i32 1
  store ptr %172, ptr %22, align 8, !tbaa !81
  call void @llvm.lifetime.start.p0(i64 40, ptr %24) #5
  call void @OSSL_PARAM_construct_end(ptr dead_on_unwind writable sret(%struct.ossl_param_st) align 8 %24)
  call void @llvm.memcpy.p0.p0.i64(ptr align 8 %171, ptr align 8 %24, i64 40, i1 false), !tbaa.struct !85
  call void @llvm.lifetime.end.p0(i64 40, ptr %24) #5
  %173 = load ptr, ptr %14, align 8, !tbaa !88
  %174 = call ptr @EVP_MD_CTX_get_pkey_ctx(ptr noundef %173)
  %175 = getelementptr inbounds [2 x %struct.ossl_param_st], ptr %21, i64 0, i64 0
  %176 = call i32 @EVP_PKEY_CTX_set_params(ptr noundef %174, ptr noundef %175)
  %177 = icmp ne i32 %176, 0
  br i1 %177, label %179, label %178

178:                                              ; preds = %165
  store i32 2, ptr %18, align 4
  br label %180

179:                                              ; preds = %165
  store i32 0, ptr %18, align 4
  br label %180

180:                                              ; preds = %178, %179
  call void @llvm.lifetime.end.p0(i64 8, ptr %22) #5
  call void @llvm.lifetime.end.p0(i64 80, ptr %21) #5
  %181 = load i32, ptr %18, align 4
  switch i32 %181, label %224 [
    i32 0, label %182
    i32 2, label %221
  ]

182:                                              ; preds = %180
  br label %183

183:                                              ; preds = %182, %160, %153, %148, %117
  %184 = load ptr, ptr %14, align 8, !tbaa !88
  %185 = getelementptr inbounds [13 x i8], ptr %15, i64 0, i64 0
  %186 = call i32 @EVP_DigestSignUpdate(ptr noundef %184, ptr noundef %185, i64 noundef 13)
  %187 = icmp sle i32 %186, 0
  br i1 %187, label %203, label %188

188:                                              ; preds = %183
  %189 = load ptr, ptr %14, align 8, !tbaa !88
  %190 = load ptr, ptr %7, align 8, !tbaa !60
  %191 = getelementptr inbounds nuw %struct.tls_rl_record_st, ptr %190, i32 0, i32 6
  %192 = load ptr, ptr %191, align 8, !tbaa !66
  %193 = load ptr, ptr %7, align 8, !tbaa !60
  %194 = getelementptr inbounds nuw %struct.tls_rl_record_st, ptr %193, i32 0, i32 2
  %195 = load i64, ptr %194, align 8, !tbaa !69
  %196 = call i32 @EVP_DigestSignUpdate(ptr noundef %189, ptr noundef %192, i64 noundef %195)
  %197 = icmp sle i32 %196, 0
  br i1 %197, label %203, label %198

198:                                              ; preds = %188
  %199 = load ptr, ptr %14, align 8, !tbaa !88
  %200 = load ptr, ptr %8, align 8, !tbaa !43
  %201 = call i32 @EVP_DigestSignFinal(ptr noundef %199, ptr noundef %200, ptr noundef %12)
  %202 = icmp sle i32 %201, 0
  br i1 %202, label %203, label %204

203:                                              ; preds = %198, %188, %183
  br label %221

204:                                              ; preds = %198
  br label %205

205:                                              ; preds = %204
  call void @llvm.lifetime.start.p0(i64 8, ptr %25) #5
  store ptr null, ptr %25, align 8, !tbaa !90
  call void @llvm.lifetime.end.p0(i64 8, ptr %25) #5
  br label %206

206:                                              ; preds = %205
  br label %207

207:                                              ; preds = %206
  %208 = load ptr, ptr %6, align 8, !tbaa !3
  %209 = getelementptr inbounds nuw %struct.ossl_record_layer_st, ptr %208, i32 0, i32 2
  %210 = load i32, ptr %209, align 8, !tbaa !70
  %211 = icmp ne i32 %210, 0
  br i1 %211, label %217, label %212

212:                                              ; preds = %207
  %213 = load ptr, ptr %6, align 8, !tbaa !3
  %214 = call i32 @tls_increment_sequence_ctr(ptr noundef %213)
  %215 = icmp ne i32 %214, 0
  br i1 %215, label %217, label %216

216:                                              ; preds = %212
  br label %221

217:                                              ; preds = %212, %207
  br label %218

218:                                              ; preds = %217
  call void @llvm.lifetime.start.p0(i64 8, ptr %26) #5
  store ptr null, ptr %26, align 8, !tbaa !90
  call void @llvm.lifetime.end.p0(i64 8, ptr %26) #5
  br label %219

219:                                              ; preds = %218
  br label %220

220:                                              ; preds = %219
  store i32 1, ptr %17, align 4, !tbaa !42
  br label %221

221:                                              ; preds = %220, %180, %216, %203, %82, %64
  %222 = load ptr, ptr %13, align 8, !tbaa !88
  call void @EVP_MD_CTX_free(ptr noundef %222)
  %223 = load i32, ptr %17, align 4, !tbaa !42
  store i32 %223, ptr %5, align 4
  store i32 1, ptr %18, align 4
  br label %224

224:                                              ; preds = %221, %180, %45
  call void @llvm.lifetime.end.p0(i64 4, ptr %17) #5
  call void @llvm.lifetime.end.p0(i64 4, ptr %16) #5
  call void @llvm.lifetime.end.p0(i64 13, ptr %15) #5
  call void @llvm.lifetime.end.p0(i64 8, ptr %14) #5
  call void @llvm.lifetime.end.p0(i64 8, ptr %13) #5
  call void @llvm.lifetime.end.p0(i64 8, ptr %12) #5
  call void @llvm.lifetime.end.p0(i64 8, ptr %11) #5
  call void @llvm.lifetime.end.p0(i64 8, ptr %10) #5
  %225 = load i32, ptr %5, align 4
  ret i32 %225
}