; Function Attrs: nounwind uwtable
define internal range(i32 0, 2) i32 @tls1_mac(ptr noundef %0, ptr noundef %1, ptr noundef %2, i32 noundef %3) #0 {
  %5 = alloca i64, align 8
  %6 = alloca [13 x i8], align 8
  %7 = alloca [2 x %struct.ossl_param_st], align 16
  %8 = alloca %struct.ossl_param_st, align 8
  %9 = getelementptr inbounds nuw i8, ptr %0, i64 4096
  call void @llvm.lifetime.start.p0(i64 8, ptr nonnull %5) #5
  call void @llvm.lifetime.start.p0(i64 13, ptr nonnull %6) #5
  %10 = getelementptr inbounds nuw i8, ptr %0, i64 4152
  %11 = load ptr, ptr %10, align 8, !tbaa !34
  %12 = tail call i32 @EVP_MD_CTX_get_size_ex(ptr noundef %11) #5
  %13 = icmp sgt i32 %12, -1
  br i1 %13, label %14, label %94, !prof !40

14:                                               ; preds = %4
  %15 = zext nneg i32 %12 to i64
  store i64 %15, ptr %5, align 8, !tbaa !25
  %16 = getelementptr inbounds nuw i8, ptr %0, i64 4276
  %17 = load i32, ptr %16, align 4, !tbaa !66
  %.not = icmp eq i32 %17, 0
  br i1 %.not, label %18, label %23

18:                                               ; preds = %14
  %19 = tail call ptr @EVP_MD_CTX_new() #5
  %20 = icmp eq ptr %19, null
  br i1 %20, label %93, label %21

21:                                               ; preds = %18
  %22 = tail call i32 @EVP_MD_CTX_copy(ptr noundef nonnull %19, ptr noundef %11) #5
  %.not55 = icmp eq i32 %22, 0
  br i1 %.not55, label %93, label %23

23:                                               ; preds = %21, %14
  %.049 = phi ptr [ %11, %14 ], [ %19, %21 ]
  %.048 = phi ptr [ null, %14 ], [ %19, %21 ]
  %24 = getelementptr inbounds nuw i8, ptr %0, i64 16
  %25 = load i32, ptr %24, align 8, !tbaa !48
  %.not56 = icmp eq i32 %25, 0
  br i1 %.not56, label %26, label %.thread

26:                                               ; preds = %23
  %27 = getelementptr inbounds nuw i8, ptr %0, i64 4280
  %28 = load i32, ptr %27, align 8, !tbaa !57
  %.not57 = icmp eq i32 %28, 0
  br i1 %.not57, label %.thread67, label %29

29:                                               ; preds = %26
  %30 = tail call i32 @EVP_MD_CTX_ctrl(ptr noundef %.049, i32 noundef 4, i32 noundef 0, ptr noundef nonnull %9) #5
  %31 = icmp slt i32 %30, 1
  br i1 %31, label %93, label %32

32:                                               ; preds = %29
  %.pr.pre = load i32, ptr %24, align 8, !tbaa !48
  %33 = icmp eq i32 %.pr.pre, 0
  br i1 %33, label %.thread67, label %.thread

.thread:                                          ; preds = %23, %32
  %34 = getelementptr inbounds nuw i8, ptr %0, i64 48
  %35 = load i16, ptr %34, align 8, !tbaa !49
  %36 = lshr i16 %35, 8
  %37 = trunc nuw i16 %36 to i8
  %38 = trunc i16 %35 to i8
  %39 = getelementptr inbounds nuw i8, ptr %0, i64 4098
  %.sroa.5.0..sroa_idx = getelementptr inbounds nuw i8, ptr %6, i64 2
  call void @llvm.memcpy.p0.p0.i64(ptr noundef nonnull align 2 dereferenceable(6) %.sroa.5.0..sroa_idx, ptr noundef nonnull align 1 dereferenceable(6) %39, i64 6, i1 false)
  store i8 %37, ptr %6, align 8
  %.sroa.4.0..sroa_idx = getelementptr inbounds nuw i8, ptr %6, i64 1
  store i8 %38, ptr %.sroa.4.0..sroa_idx, align 1
  br label %41

.thread67:                                        ; preds = %26, %32
  %40 = load i64, ptr %9, align 1
  store i64 %40, ptr %6, align 8
  br label %41

41:                                               ; preds = %.thread67, %.thread
  %42 = getelementptr inbounds nuw i8, ptr %1, i64 4
  %43 = load i32, ptr %42, align 4, !tbaa !50
  %44 = trunc i32 %43 to i8
  %45 = getelementptr inbounds nuw i8, ptr %6, i64 8
  store i8 %44, ptr %45, align 8, !tbaa !51
  %46 = getelementptr inbounds nuw i8, ptr %0, i64 20
  %47 = load i32, ptr %46, align 4, !tbaa !38
  %48 = lshr i32 %47, 8
  %49 = trunc i32 %48 to i8
  %50 = getelementptr inbounds nuw i8, ptr %6, i64 9
  store i8 %49, ptr %50, align 1, !tbaa !51
  %51 = trunc i32 %47 to i8
  %52 = getelementptr inbounds nuw i8, ptr %6, i64 10
  store i8 %51, ptr %52, align 2, !tbaa !51
  %53 = getelementptr inbounds nuw i8, ptr %1, i64 8
  %54 = load i64, ptr %53, align 8, !tbaa !47
  %55 = lshr i64 %54, 8
  %56 = trunc i64 %55 to i8
  %57 = getelementptr inbounds nuw i8, ptr %6, i64 11
  store i8 %56, ptr %57, align 1, !tbaa !51
  %58 = trunc i64 %54 to i8
  %59 = getelementptr inbounds nuw i8, ptr %6, i64 12
  store i8 %58, ptr %59, align 4, !tbaa !51
  %.not59 = icmp eq i32 %3, 0
  br i1 %.not59, label %60, label %76

60:                                               ; preds = %41
  %61 = getelementptr inbounds nuw i8, ptr %0, i64 4272
  %62 = load i32, ptr %61, align 8, !tbaa !58
  %.not60 = icmp eq i32 %62, 0
  br i1 %.not60, label %63, label %76

63:                                               ; preds = %60
  %64 = getelementptr inbounds nuw i8, ptr %0, i64 4128
  %65 = load ptr, ptr %64, align 8, !tbaa !33
  %66 = tail call ptr @EVP_CIPHER_CTX_get0_cipher(ptr noundef %65) #5
  %67 = tail call i32 @EVP_CIPHER_get_mode(ptr noundef %66) #5
  %68 = icmp eq i32 %67, 2
  br i1 %68, label %69, label %76

69:                                               ; preds = %63
  %70 = tail call signext i8 @ssl3_cbc_record_digest_supported(ptr noundef %.049) #5
  %.not61 = icmp eq i8 %70, 0
  br i1 %.not61, label %76, label %71

71:                                               ; preds = %69
  call void @llvm.lifetime.start.p0(i64 80, ptr nonnull %7) #5
  %72 = getelementptr inbounds nuw i8, ptr %7, i64 40
  %73 = getelementptr inbounds nuw i8, ptr %1, i64 16
  call void @OSSL_PARAM_construct_size_t(ptr dead_on_unwind nonnull writable sret(%struct.ossl_param_st) align 8 %7, ptr noundef nonnull @.str.3, ptr noundef nonnull %73) #5
  call void @llvm.lifetime.start.p0(i64 40, ptr nonnull %8) #5
  call void @OSSL_PARAM_construct_end(ptr dead_on_unwind nonnull writable sret(%struct.ossl_param_st) align 8 %8) #5
  call void @llvm.memcpy.p0.p0.i64(ptr noundef nonnull align 8 dereferenceable(40) %72, ptr noundef nonnull align 8 dereferenceable(40) %8, i64 40, i1 false), !tbaa.struct !63
  call void @llvm.lifetime.end.p0(i64 40, ptr nonnull %8) #5
  %74 = call ptr @EVP_MD_CTX_get_pkey_ctx(ptr noundef %.049) #5
  %75 = call i32 @EVP_PKEY_CTX_set_params(ptr noundef %74, ptr noundef nonnull %7) #5
  %.not62 = icmp eq i32 %75, 0
  call void @llvm.lifetime.end.p0(i64 80, ptr nonnull %7) #5
  br i1 %.not62, label %93, label %76

76:                                               ; preds = %71, %69, %63, %60, %41
  %77 = call i32 @EVP_DigestSignUpdate(ptr noundef %.049, ptr noundef nonnull %6, i64 noundef 13) #5
  %78 = icmp slt i32 %77, 1
  br i1 %78, label %93, label %79

79:                                               ; preds = %76
  %80 = getelementptr inbounds nuw i8, ptr %1, i64 40
  %81 = load ptr, ptr %80, align 8, !tbaa !46
  %82 = load i64, ptr %53, align 8, !tbaa !47
  %83 = call i32 @EVP_DigestSignUpdate(ptr noundef %.049, ptr noundef %81, i64 noundef %82) #5
  %84 = icmp slt i32 %83, 1
  br i1 %84, label %93, label %85

85:                                               ; preds = %79
  %86 = call i32 @EVP_DigestSignFinal(ptr noundef %.049, ptr noundef %2, ptr noundef nonnull %5) #5
  %87 = icmp slt i32 %86, 1
  br i1 %87, label %93, label %88

88:                                               ; preds = %85
  %89 = load i32, ptr %24, align 8, !tbaa !48
  %.not63 = icmp eq i32 %89, 0
  br i1 %.not63, label %90, label %92

90:                                               ; preds = %88
  %91 = call i32 @tls_increment_sequence_ctr(ptr noundef nonnull %0) #5
  %.not64 = icmp eq i32 %91, 0
  br i1 %.not64, label %93, label %92

92:                                               ; preds = %88, %90
  br label %93

93:                                               ; preds = %71, %90, %76, %79, %85, %29, %18, %21, %92
  %.050 = phi i32 [ 0, %76 ], [ 0, %79 ], [ 0, %85 ], [ 1, %92 ], [ 0, %90 ], [ 0, %71 ], [ 0, %29 ], [ 0, %18 ], [ 0, %21 ]
  %.1 = phi ptr [ %.048, %76 ], [ %.048, %79 ], [ %.048, %85 ], [ %.048, %92 ], [ %.048, %90 ], [ %.048, %71 ], [ %.048, %29 ], [ null, %18 ], [ %19, %21 ]
  call void @EVP_MD_CTX_free(ptr noundef %.1) #5
  br label %94

94:                                               ; preds = %4, %93
  %.0 = phi i32 [ %.050, %93 ], [ 0, %4 ]
  call void @llvm.lifetime.end.p0(i64 13, ptr nonnull %6) #5
  call void @llvm.lifetime.end.p0(i64 8, ptr nonnull %5) #5
  ret i32 %.0
}